target datalayout = "e-m:e-p270:32:32-p271:32:32-p272:64:64-i64:64-i128:128-f80:128-n8:16:32:64-S128"
target triple = "x86_64-pc-linux-gnu"

%struct.lua_State = type { %struct.GCRef, i8, i8, i8, i8, %struct.MRef, %struct.GCRef, ptr, ptr, %struct.MRef, %struct.MRef, %struct.GCRef, %struct.GCRef, ptr, i32 }
%struct.MRef = type { i64 }
%struct.GCRef = type { i64 }
%union.TValue = type { i64 }
%struct.lua_Debug = type { i32, ptr, ptr, ptr, ptr, i32, i32, i32, i32, [60 x i8], i32 }

@.str.1 = private unnamed_addr constant [23 x i8] c"copy of dead GC object\00", align 1

; Function Attrs: alwaysinline nounwind uwtable
define internal void @checklivetv(ptr noundef %0, ptr noundef %1, ptr noundef %2) #2 {
  %4 = alloca ptr, align 8
  %5 = alloca ptr, align 8
  %6 = alloca ptr, align 8
  store ptr %0, ptr %4, align 8, !tbaa !4
  store ptr %1, ptr %5, align 8, !tbaa !35
  store ptr %2, ptr %6, align 8, !tbaa !20
  ret void
}

; Function Attrs: alwaysinline nounwind uwtable
define internal void @copyTV(ptr noundef %0, ptr noundef %1, ptr noundef %2) #2 {
  %4 = alloca ptr, align 8
  %5 = alloca ptr, align 8
  %6 = alloca ptr, align 8
  store ptr %0, ptr %4, align 8, !tbaa !4
  store ptr %1, ptr %5, align 8, !tbaa !35
  store ptr %2, ptr %6, align 8, !tbaa !35
  %7 = load ptr, ptr %5, align 8, !tbaa !35
  %8 = load ptr, ptr %6, align 8, !tbaa !35
  call void @llvm.memcpy.p0.p0.i64(ptr align 8 %7, ptr align 8 %8, i64 8, i1 false), !tbaa.struct !45
  %9 = load ptr, ptr %4, align 8, !tbaa !4
  %10 = load ptr, ptr %5, align 8, !tbaa !35
  call void @checklivetv(ptr noundef %9, ptr noundef %10, ptr noundef @.str.1)
  ret void
}

; Function Attrs: nounwind uwtable
define internal ptr @getthread(ptr noundef %0, ptr noundef %1) #0 {
  %3 = alloca ptr, align 8
  %4 = alloca ptr, align 8
  %5 = alloca ptr, align 8
  store ptr %0, ptr %4, align 8, !tbaa !4
  store ptr %1, ptr %5, align 8, !tbaa !46
  %6 = load ptr, ptr %4, align 8, !tbaa !4
  %7 = getelementptr inbounds nuw %struct.lua_State, ptr %6, i32 0, i32 7
  %8 = load ptr, ptr %7, align 8, !tbaa !18
  %9 = load ptr, ptr %4, align 8, !tbaa !4
  %10 = getelementptr inbounds nuw %struct.lua_State, ptr %9, i32 0, i32 8
  %11 = load ptr, ptr %10, align 8, !tbaa !9
  %12 = icmp ult ptr %8, %11
  br i1 %12, label %13, label %30

13:                                               ; preds = %2
  %14 = load ptr, ptr %4, align 8, !tbaa !4
  %15 = getelementptr inbounds nuw %struct.lua_State, ptr %14, i32 0, i32 7
  %16 = load ptr, ptr %15, align 8, !tbaa !18
  %17 = load i64, ptr %16, align 8, !tbaa !17
  %18 = ashr i64 %17, 47
  %19 = trunc i64 %18 to i32
  %20 = icmp eq i32 %19, -7
  br i1 %20, label %21, label %30

21:                                               ; preds = %13
  %22 = load ptr, ptr %5, align 8, !tbaa !46
  store i32 1, ptr %22, align 4, !tbaa !19
  %23 = load ptr, ptr %4, align 8, !tbaa !4
  %24 = getelementptr inbounds nuw %struct.lua_State, ptr %23, i32 0, i32 7
  %25 = load ptr, ptr %24, align 8, !tbaa !18
  %26 = getelementptr inbounds nuw %struct.GCRef, ptr %25, i32 0, i32 0
  %27 = load i64, ptr %26, align 8, !tbaa !17
  %28 = and i64 %27, 140737488355327
  %29 = inttoptr i64 %28 to ptr
  store ptr %29, ptr %3, align 8
  br label %33

30:                                               ; preds = %13, %2
  %31 = load ptr, ptr %5, align 8, !tbaa !46
  store i32 0, ptr %31, align 4, !tbaa !19
  %32 = load ptr, ptr %4, align 8, !tbaa !4
  store ptr %32, ptr %3, align 8
  br label %33

33:                                               ; preds = %30, %21
  %34 = load ptr, ptr %3, align 8
  ret ptr %34
}

; Function Attrs: nounwind uwtable
define internal i32 @lj_cf_debug_setlocal(ptr noundef %0) #0 {
  %2 = alloca ptr, align 8
  %3 = alloca i32, align 4
  %4 = alloca ptr, align 8
  %5 = alloca %struct.lua_Debug, align 8
  %6 = alloca ptr, align 8
  store ptr %0, ptr %2, align 8, !tbaa !4
  call void @llvm.lifetime.start.p0(i64 4, ptr %3) #8
  call void @llvm.lifetime.start.p0(i64 8, ptr %4) #8
  %7 = load ptr, ptr %2, align 8, !tbaa !4
  %8 = call ptr @getthread(ptr noundef %7, ptr noundef %3)
  store ptr %8, ptr %4, align 8, !tbaa !4
  call void @llvm.lifetime.start.p0(i64 120, ptr %5) #8
  call void @llvm.lifetime.start.p0(i64 8, ptr %6) #8
  %9 = load ptr, ptr %4, align 8, !tbaa !4
  %10 = load ptr, ptr %2, align 8, !tbaa !4
  %11 = load i32, ptr %3, align 4, !tbaa !19
  %12 = add nsw i32 %11, 1
  %13 = call i32 @lj_lib_checkint(ptr noundef %10, i32 noundef %12)
  %14 = call i32 @lua_getstack(ptr noundef %9, i32 noundef %13, ptr noundef %5)
  %15 = icmp ne i32 %14, 0
  br i1 %15, label %20, label %16

16:                                               ; preds = %1
  %17 = load ptr, ptr %2, align 8, !tbaa !4
  %18 = load i32, ptr %3, align 4, !tbaa !19
  %19 = add nsw i32 %18, 1
  call void @lj_err_arg(ptr noundef %17, i32 noundef %19, i32 noundef 1151) #7
  unreachable

20:                                               ; preds = %1
  %21 = load ptr, ptr %2, align 8, !tbaa !4
  %22 = load i32, ptr %3, align 4, !tbaa !19
  %23 = add nsw i32 %22, 3
  %24 = call ptr @lj_lib_checkany(ptr noundef %21, i32 noundef %23)
  store ptr %24, ptr %6, align 8, !tbaa !35
  %25 = load ptr, ptr %4, align 8, !tbaa !4
  %26 = load ptr, ptr %4, align 8, !tbaa !4
  %27 = getelementptr inbounds nuw %struct.lua_State, ptr %26, i32 0, i32 8
  %28 = load ptr, ptr %27, align 8, !tbaa !9
  %29 = getelementptr inbounds nuw %union.TValue, ptr %28, i32 1
  store ptr %29, ptr %27, align 8, !tbaa !9
  %30 = load ptr, ptr %6, align 8, !tbaa !35
  call void @copyTV(ptr noundef %25, ptr noundef %28, ptr noundef %30)
  %31 = load ptr, ptr %2, align 8, !tbaa !4
  %32 = load ptr, ptr %4, align 8, !tbaa !4
  %33 = load ptr, ptr %2, align 8, !tbaa !4
  %34 = load i32, ptr %3, align 4, !tbaa !19
  %35 = add nsw i32 %34, 2
  %36 = call i32 @lj_lib_checkint(ptr noundef %33, i32 noundef %35)
  %37 = call ptr @lua_setlocal(ptr noundef %32, ptr noundef %5, i32 noundef %36)
  call void @lua_pushstring(ptr noundef %31, ptr noundef %37)
  call void @llvm.lifetime.end.p0(i64 8, ptr %6) #8
  call void @llvm.lifetime.end.p0(i64 120, ptr %5) #8
  call void @llvm.lifetime.end.p0(i64 8, ptr %4) #8
  call void @llvm.lifetime.end.p0(i64 4, ptr %3) #8
  ret i32 1
}