; Function Attrs: nounwind uwtable
define internal noundef i32 @lj_cf_debug_setlocal(ptr noundef %0) #0 {
  %2 = alloca %struct.lua_Debug, align 8
  %3 = getelementptr inbounds nuw i8, ptr %0, i64 32
  %4 = load ptr, ptr %3, align 8, !tbaa !16
  %5 = getelementptr inbounds nuw i8, ptr %0, i64 40
  %6 = load ptr, ptr %5, align 8, !tbaa !4
  %7 = icmp ult ptr %4, %6
  br i1 %7, label %8, label %getthread.exit

8:                                                ; preds = %1
  %9 = load i64, ptr %4, align 8, !tbaa !15
  %.mask.i = and i64 %9, -140737488355328
  %10 = icmp eq i64 %.mask.i, -985162418487296
  br i1 %10, label %11, label %getthread.exit

11:                                               ; preds = %8
  %12 = and i64 %9, 140737488355327
  %13 = inttoptr i64 %12 to ptr
  br label %getthread.exit

getthread.exit:                                   ; preds = %1, %8, %11
  %.0 = phi i32 [ 1, %11 ], [ 0, %8 ], [ 0, %1 ]
  %.0.i = phi ptr [ %13, %11 ], [ %0, %8 ], [ %0, %1 ]
  call void @llvm.lifetime.start.p0(i64 120, ptr nonnull %2) #10
  %14 = add nuw nsw i32 %.0, 1
  %15 = tail call i32 @lj_lib_checkint(ptr noundef nonnull %0, i32 noundef %14) #10
  %16 = call i32 @lua_getstack(ptr noundef %.0.i, i32 noundef %15, ptr noundef nonnull %2) #10
  %.not = icmp eq i32 %16, 0
  br i1 %.not, label %17, label %18

17:                                               ; preds = %getthread.exit
  call void @lj_err_arg(ptr noundef nonnull %0, i32 noundef %14, i32 noundef 1151) #11
  unreachable

18:                                               ; preds = %getthread.exit
  %19 = add nuw nsw i32 %.0, 3
  %20 = call ptr @lj_lib_checkany(ptr noundef nonnull %0, i32 noundef %19) #10
  %21 = getelementptr inbounds nuw i8, ptr %.0.i, i64 40
  %22 = load ptr, ptr %21, align 8, !tbaa !4
  %23 = getelementptr inbounds nuw i8, ptr %22, i64 8
  store ptr %23, ptr %21, align 8, !tbaa !4
  %24 = load i64, ptr %20, align 8, !tbaa !15
  store i64 %24, ptr %22, align 8, !tbaa !15
  %25 = or disjoint i32 %.0, 2
  %26 = call i32 @lj_lib_checkint(ptr noundef nonnull %0, i32 noundef %25) #10
  %27 = call ptr @lua_setlocal(ptr noundef %.0.i, ptr noundef nonnull %2, i32 noundef %26) #10
  call void @lua_pushstring(ptr noundef nonnull %0, ptr noundef %27) #10
  call void @llvm.lifetime.end.p0(i64 120, ptr nonnull %2) #10
  ret i32 1
}